; ModuleID = '4/236.c'
source_filename = "4/236.c"
target datalayout = "e-m:e-p270:32:32-p271:32:32-p272:64:64-i64:64-f80:128-n8:16:32:64-S128"
target triple = "x86_64-pc-linux-gnu"

@.str = private unnamed_addr constant [5 x i8] c"%d%d\00", align 1
@.str.1 = private unnamed_addr constant [3 x i8] c"%d\00", align 1
@.str.2 = private unnamed_addr constant [4 x i8] c"%d\0A\00", align 1

; Function Attrs: noinline nounwind uwtable
define dso_local i32 @main() #0 {
  %1 = alloca i32, align 4
  %2 = alloca i32, align 4
  %3 = alloca i32, align 4
  %4 = alloca [100 x [100 x i32]], align 16
  %5 = alloca i32, align 4
  %6 = alloca i32, align 4
  %7 = alloca i32, align 4
  %8 = alloca i32, align 4
  %9 = alloca i32, align 4
  store i32 0, i32* %1, align 4
  %10 = call i32 (i8*, ...) @__isoc99_scanf(i8* getelementptr inbounds ([5 x i8], [5 x i8]* @.str, i64 0, i64 0), i32* %3, i32* %2)
  store i32 0, i32* %5, align 4
  br label %11

11:                                               ; preds = %32, %0
  %12 = load i32, i32* %5, align 4
  %13 = load i32, i32* %3, align 4
  %14 = icmp slt i32 %12, %13
  br i1 %14, label %15, label %35

15:                                               ; preds = %11
  store i32 0, i32* %6, align 4
  br label %16

16:                                               ; preds = %28, %15
  %17 = load i32, i32* %6, align 4
  %18 = load i32, i32* %2, align 4
  %19 = icmp slt i32 %17, %18
  br i1 %19, label %20, label %31

20:                                               ; preds = %16
  %21 = load i32, i32* %5, align 4
  %22 = sext i32 %21 to i64
  %23 = getelementptr inbounds [100 x [100 x i32]], [100 x [100 x i32]]* %4, i64 0, i64 %22
  %24 = load i32, i32* %6, align 4
  %25 = sext i32 %24 to i64
  %26 = getelementptr inbounds [100 x i32], [100 x i32]* %23, i64 0, i64 %25
  %27 = call i32 (i8*, ...) @__isoc99_scanf(i8* getelementptr inbounds ([3 x i8], [3 x i8]* @.str.1, i64 0, i64 0), i32* %26)
  br label %28

28:                                               ; preds = %20
  %29 = load i32, i32* %6, align 4
  %30 = add nsw i32 %29, 1
  store i32 %30, i32* %6, align 4
  br label %16

31:                                               ; preds = %16
  br label %32

32:                                               ; preds = %31
  %33 = load i32, i32* %5, align 4
  %34 = add nsw i32 %33, 1
  store i32 %34, i32* %5, align 4
  br label %11

35:                                               ; preds = %11
  store i32 0, i32* %7, align 4
  br label %36

36:                                               ; preds = %67, %35
  %37 = load i32, i32* %7, align 4
  %38 = load i32, i32* %2, align 4
  %39 = icmp slt i32 %37, %38
  br i1 %39, label %40, label %70

40:                                               ; preds = %36
  %41 = load i32, i32* %7, align 4
  store i32 %41, i32* %9, align 4
  store i32 0, i32* %8, align 4
  br label %42

42:                                               ; preds = %60, %40
  %43 = load i32, i32* %7, align 4
  %44 = icmp sge i32 %43, 0
  br i1 %44, label %45, label %49

45:                                               ; preds = %42
  %46 = load i32, i32* %8, align 4
  %47 = load i32, i32* %3, align 4
  %48 = icmp slt i32 %46, %47
  br label %49

49:                                               ; preds = %45, %42
  %50 = phi i1 [ false, %42 ], [ %48, %45 ]
  br i1 %50, label %51, label %65

51:                                               ; preds = %49
  %52 = load i32, i32* %8, align 4
  %53 = sext i32 %52 to i64
  %54 = getelementptr inbounds [100 x [100 x i32]], [100 x [100 x i32]]* %4, i64 0, i64 %53
  %55 = load i32, i32* %7, align 4
  %56 = sext i32 %55 to i64
  %57 = getelementptr inbounds [100 x i32], [100 x i32]* %54, i64 0, i64 %56
  %58 = load i32, i32* %57, align 4
  %59 = call i32 (i8*, ...) @printf(i8* getelementptr inbounds ([4 x i8], [4 x i8]* @.str.2, i64 0, i64 0), i32 %58)
  br label %60

60:                                               ; preds = %51
  %61 = load i32, i32* %8, align 4
  %62 = add nsw i32 %61, 1
  store i32 %62, i32* %8, align 4
  %63 = load i32, i32* %7, align 4
  %64 = add nsw i32 %63, -1
  store i32 %64, i32* %7, align 4
  br label %42

65:                                               ; preds = %49
  %66 = load i32, i32* %9, align 4
  store i32 %66, i32* %7, align 4
  br label %67

67:                                               ; preds = %65
  %68 = load i32, i32* %7, align 4
  %69 = add nsw i32 %68, 1
  store i32 %69, i32* %7, align 4
  br label %36

70:                                               ; preds = %36
  store i32 1, i32* %8, align 4
  br label %71

71:                                               ; preds = %104, %70
  %72 = load i32, i32* %8, align 4
  %73 = load i32, i32* %3, align 4
  %74 = icmp slt i32 %72, %73
  br i1 %74, label %75, label %107

75:                                               ; preds = %71
  %76 = load i32, i32* %8, align 4
  store i32 %76, i32* %9, align 4
  %77 = load i32, i32* %2, align 4
  %78 = sub nsw i32 %77, 1
  store i32 %78, i32* %7, align 4
  br label %79

79:                                               ; preds = %97, %75
  %80 = load i32, i32* %8, align 4
  %81 = load i32, i32* %3, align 4
  %82 = icmp slt i32 %80, %81
  br i1 %82, label %83, label %86

83:                                               ; preds = %79
  %84 = load i32, i32* %7, align 4
  %85 = icmp sge i32 %84, 0
  br label %86

86:                                               ; preds = %83, %79
  %87 = phi i1 [ false, %79 ], [ %85, %83 ]
  br i1 %87, label %88, label %102

88:                                               ; preds = %86
  %89 = load i32, i32* %8, align 4
  %90 = sext i32 %89 to i64
  %91 = getelementptr inbounds [100 x [100 x i32]], [100 x [100 x i32]]* %4, i64 0, i64 %90
  %92 = load i32, i32* %7, align 4
  %93 = sext i32 %92 to i64
  %94 = getelementptr inbounds [100 x i32], [100 x i32]* %91, i64 0, i64 %93
  %95 = load i32, i32* %94, align 4
  %96 = call i32 (i8*, ...) @printf(i8* getelementptr inbounds ([4 x i8], [4 x i8]* @.str.2, i64 0, i64 0), i32 %95)
  br label %97

97:                                               ; preds = %88
  %98 = load i32, i32* %7, align 4
  %99 = add nsw i32 %98, -1
  store i32 %99, i32* %7, align 4
  %100 = load i32, i32* %8, align 4
  %101 = add nsw i32 %100, 1
  store i32 %101, i32* %8, align 4
  br label %79

102:                                              ; preds = %86
  %103 = load i32, i32* %9, align 4
  store i32 %103, i32* %8, align 4
  br label %104

104:                                              ; preds = %102
  %105 = load i32, i32* %8, align 4
  %106 = add nsw i32 %105, 1
  store i32 %106, i32* %8, align 4
  br label %71

107:                                              ; preds = %71
  ret i32 0
}

declare dso_local i32 @__isoc99_scanf(i8*, ...) #1

declare dso_local i32 @printf(i8*, ...) #1


!llvm.module.flags = !{!0}
!llvm.ident = !{!1}

!0 = !{i32 1, !"wchar_size", i32 4}
!1 = !{!"clang version 10.0.0-4ubuntu1 "}
